target datalayout = "e-m:e-p270:32:32-p271:32:32-p272:64:64-i64:64-i128:128-f80:128-n8:16:32:64-S128"
target triple = "x86_64-pc-linux-gnu"

%struct.Agobj_s = type { %struct.Agtag_s, ptr }
%struct.Agtag_s = type { i32, i64 }
%struct.Agraphinfo_t = type { %struct.Agrec_s, ptr, ptr, %struct.boxf, [4 x %struct.pointf_s], i8, i8, i8, i8, i32, double, double, i16, ptr, ptr, ptr, ptr, i32, ptr, ptr, ptr, ptr, i16, i16, i32, ptr, ptr, ptr, ptr, ptr, i32, ptr, ptr, %struct.nlist_t, ptr, ptr, i32, i32, i8, i8, i32, i32, i32, ptr, ptr, ptr, ptr, i8, i8, i8, i8, i8 }
%struct.Agrec_s = type { ptr, ptr }
%struct.boxf = type { %struct.pointf_s, %struct.pointf_s }
%struct.pointf_s = type { double, double }
%struct.nlist_t = type { ptr, i64 }
%struct.ndata = type { ptr }
%struct.Agnodeinfo_t = type { %struct.Agrec_s, ptr, ptr, %struct.pointf_s, double, double, %struct.boxf, double, double, double, double, double, ptr, ptr, ptr, i8, i8, i8, i8, i32, i32, i32, ptr, double, i8, i8, ptr, ptr, i8, i64, i8, i8, i8, ptr, ptr, %struct.elist, %struct.elist, %struct.elist, %struct.elist, %struct.elist, ptr, i32, ptr, i32, i32, double, %struct.elist, %struct.elist, %struct.elist, %struct.elist, ptr, i32, i32, i32, [1 x double] }
%struct.elist = type { ptr, i64 }
%struct.Agedgeinfo_t = type { %struct.Agrec_s, ptr, %struct.port, %struct.port, ptr, ptr, ptr, ptr, i8, i8, i8, i8, i8, ptr, ptr, double, double, %struct.Ppoly_t, i8, i8, i16, i32, i32, i32, i16, i32, ptr }
%struct.port = type { %struct.pointf_s, double, ptr, i8, i8, i8, i8, i8, i8, ptr }
%struct.Ppoly_t = type { ptr, i64 }

@Ndim = external global i16, align 2
@stderr = external global ptr, align 8
@.str = private unnamed_addr constant [58 x i8] c"integer overflow when trying to allocate %zu * %zu bytes\0A\00", align 1
@.str.1 = private unnamed_addr constant [49 x i8] c"out of memory when trying to allocate %zu bytes\0A\00", align 1
@.str.2 = private unnamed_addr constant [13 x i8] c"Agedgeinfo_t\00", align 1
@E_weight = external global ptr, align 8

; Function Attrs: nounwind uwtable
define internal void @circular_init_edge(ptr noundef %0) #0 {
  %2 = alloca ptr, align 8
  store ptr %0, ptr %2, align 8, !tbaa !47
  %3 = load ptr, ptr %2, align 8, !tbaa !47
  %4 = call ptr @agbindrec(ptr noundef %3, ptr noundef @.str.2, i32 noundef 240, i32 noundef 1)
  %5 = load ptr, ptr %2, align 8, !tbaa !47
  call void @common_init_edge(ptr noundef %5)
  %6 = load ptr, ptr %2, align 8, !tbaa !47
  %7 = load ptr, ptr @E_weight, align 8, !tbaa !93
  %8 = call double @late_double(ptr noundef %6, ptr noundef %7, double noundef 1.000000e+00, double noundef 0.000000e+00)
  %9 = load ptr, ptr %2, align 8, !tbaa !47
  %10 = getelementptr inbounds nuw %struct.Agobj_s, ptr %9, i32 0, i32 1
  %11 = load ptr, ptr %10, align 8, !tbaa !8
  %12 = getelementptr inbounds nuw %struct.Agedgeinfo_t, ptr %11, i32 0, i32 15
  store double %8, ptr %12, align 8, !tbaa !95
  ret void
}

; Function Attrs: inlinehint nounwind uwtable
define internal ptr @gv_calloc(i64 noundef %0, i64 noundef %1) #4 {
  %3 = alloca i64, align 8
  %4 = alloca i64, align 8
  %5 = alloca ptr, align 8
  store i64 %0, ptr %3, align 8, !tbaa !51
  store i64 %1, ptr %4, align 8, !tbaa !51
  %6 = load i64, ptr %3, align 8, !tbaa !51
  %7 = icmp ugt i64 %6, 0
  br i1 %7, label %8, label %18

8:                                                ; preds = %2
  %9 = load i64, ptr %3, align 8, !tbaa !51
  %10 = udiv i64 -1, %9
  %11 = load i64, ptr %4, align 8, !tbaa !51
  %12 = icmp ult i64 %10, %11
  br i1 %12, label %13, label %18

13:                                               ; preds = %8
  %14 = load ptr, ptr @stderr, align 8, !tbaa !91
  %15 = load i64, ptr %3, align 8, !tbaa !51
  %16 = load i64, ptr %4, align 8, !tbaa !51
  %17 = call i32 (ptr, ptr, ...) @fprintf(ptr noundef %14, ptr noundef @.str, i64 noundef %15, i64 noundef %16) #8
  call void @graphviz_exit(i32 noundef 1) #9
  unreachable

18:                                               ; preds = %8, %2
  call void @llvm.lifetime.start.p0(i64 8, ptr %5) #8
  %19 = load i64, ptr %3, align 8, !tbaa !51
  %20 = load i64, ptr %4, align 8, !tbaa !51
  %21 = call noalias ptr @calloc(i64 noundef %19, i64 noundef %20) #10
  store ptr %21, ptr %5, align 8, !tbaa !35
  %22 = load i64, ptr %3, align 8, !tbaa !51
  %23 = icmp ugt i64 %22, 0
  br i1 %23, label %24, label %36

24:                                               ; preds = %18
  %25 = load i64, ptr %4, align 8, !tbaa !51
  %26 = icmp ugt i64 %25, 0
  br i1 %26, label %27, label %36

27:                                               ; preds = %24
  %28 = load ptr, ptr %5, align 8, !tbaa !35
  %29 = icmp eq ptr %28, null
  br i1 %29, label %30, label %36

30:                                               ; preds = %27
  %31 = load ptr, ptr @stderr, align 8, !tbaa !91
  %32 = load i64, ptr %3, align 8, !tbaa !51
  %33 = load i64, ptr %4, align 8, !tbaa !51
  %34 = mul i64 %32, %33
  %35 = call i32 (ptr, ptr, ...) @fprintf(ptr noundef %31, ptr noundef @.str.1, i64 noundef %34) #8
  call void @graphviz_exit(i32 noundef 1) #9
  unreachable

36:                                               ; preds = %27, %24, %18
  %37 = load ptr, ptr %5, align 8, !tbaa !35
  call void @llvm.lifetime.end.p0(i64 8, ptr %5) #8
  ret ptr %37
}

; Function Attrs: nounwind uwtable
define internal void @circular_init_node_edge(ptr noundef %0) #0 {
  %2 = alloca ptr, align 8
  %3 = alloca ptr, align 8
  %4 = alloca ptr, align 8
  %5 = alloca i32, align 4
  %6 = alloca ptr, align 8
  store ptr %0, ptr %2, align 8, !tbaa !3
  call void @llvm.lifetime.start.p0(i64 8, ptr %3) #8
  call void @llvm.lifetime.start.p0(i64 8, ptr %4) #8
  call void @llvm.lifetime.start.p0(i64 4, ptr %5) #8
  store i32 0, ptr %5, align 4, !tbaa !34
  call void @llvm.lifetime.start.p0(i64 8, ptr %6) #8
  %7 = load ptr, ptr %2, align 8, !tbaa !3
  %8 = call i32 @agnnodes(ptr noundef %7)
  %9 = sext i32 %8 to i64
  %10 = call ptr @gv_calloc(i64 noundef %9, i64 noundef 8)
  store ptr %10, ptr %6, align 8, !tbaa !35
  %11 = load ptr, ptr %2, align 8, !tbaa !3
  %12 = call i32 @agnnodes(ptr noundef %11)
  %13 = add nsw i32 %12, 1
  %14 = sext i32 %13 to i64
  %15 = call ptr @gv_calloc(i64 noundef %14, i64 noundef 8)
  %16 = load ptr, ptr %2, align 8, !tbaa !3
  %17 = getelementptr inbounds nuw %struct.Agobj_s, ptr %16, i32 0, i32 1
  %18 = load ptr, ptr %17, align 8, !tbaa !8
  %19 = getelementptr inbounds nuw %struct.Agraphinfo_t, ptr %18, i32 0, i32 16
  store ptr %15, ptr %19, align 8, !tbaa !36
  %20 = load ptr, ptr %2, align 8, !tbaa !3
  %21 = call ptr @agfstnode(ptr noundef %20)
  store ptr %21, ptr %3, align 8, !tbaa !37
  br label %22

22:                                               ; preds = %45, %1
  %23 = load ptr, ptr %3, align 8, !tbaa !37
  %24 = icmp ne ptr %23, null
  br i1 %24, label %25, label %49

25:                                               ; preds = %22
  %26 = load ptr, ptr %3, align 8, !tbaa !37
  call void @neato_init_node(ptr noundef %26)
  %27 = load ptr, ptr %6, align 8, !tbaa !35
  %28 = load i32, ptr %5, align 4, !tbaa !34
  %29 = sext i32 %28 to i64
  %30 = getelementptr inbounds %struct.ndata, ptr %27, i64 %29
  %31 = load ptr, ptr %3, align 8, !tbaa !37
  %32 = getelementptr inbounds nuw %struct.Agobj_s, ptr %31, i32 0, i32 1
  %33 = load ptr, ptr %32, align 8, !tbaa !8
  %34 = getelementptr inbounds nuw %struct.Agnodeinfo_t, ptr %33, i32 0, i32 14
  store ptr %30, ptr %34, align 8, !tbaa !38
  %35 = load ptr, ptr %3, align 8, !tbaa !37
  %36 = load ptr, ptr %2, align 8, !tbaa !3
  %37 = getelementptr inbounds nuw %struct.Agobj_s, ptr %36, i32 0, i32 1
  %38 = load ptr, ptr %37, align 8, !tbaa !8
  %39 = getelementptr inbounds nuw %struct.Agraphinfo_t, ptr %38, i32 0, i32 16
  %40 = load ptr, ptr %39, align 8, !tbaa !36
  %41 = load i32, ptr %5, align 4, !tbaa !34
  %42 = add nsw i32 %41, 1
  store i32 %42, ptr %5, align 4, !tbaa !34
  %43 = sext i32 %41 to i64
  %44 = getelementptr inbounds ptr, ptr %40, i64 %43
  store ptr %35, ptr %44, align 8, !tbaa !37
  br label %45

45:                                               ; preds = %25
  %46 = load ptr, ptr %2, align 8, !tbaa !3
  %47 = load ptr, ptr %3, align 8, !tbaa !37
  %48 = call ptr @agnxtnode(ptr noundef %46, ptr noundef %47)
  store ptr %48, ptr %3, align 8, !tbaa !37
  br label %22, !llvm.loop !45

49:                                               ; preds = %22
  %50 = load ptr, ptr %2, align 8, !tbaa !3
  %51 = call ptr @agfstnode(ptr noundef %50)
  store ptr %51, ptr %3, align 8, !tbaa !37
  br label %52

52:                                               ; preds = %69, %49
  %53 = load ptr, ptr %3, align 8, !tbaa !37
  %54 = icmp ne ptr %53, null
  br i1 %54, label %55, label %73

55:                                               ; preds = %52
  %56 = load ptr, ptr %2, align 8, !tbaa !3
  %57 = load ptr, ptr %3, align 8, !tbaa !37
  %58 = call ptr @agfstout(ptr noundef %56, ptr noundef %57)
  store ptr %58, ptr %4, align 8, !tbaa !47
  br label %59

59:                                               ; preds = %64, %55
  %60 = load ptr, ptr %4, align 8, !tbaa !47
  %61 = icmp ne ptr %60, null
  br i1 %61, label %62, label %68

62:                                               ; preds = %59
  %63 = load ptr, ptr %4, align 8, !tbaa !47
  call void @circular_init_edge(ptr noundef %63)
  br label %64

64:                                               ; preds = %62
  %65 = load ptr, ptr %2, align 8, !tbaa !3
  %66 = load ptr, ptr %4, align 8, !tbaa !47
  %67 = call ptr @agnxtout(ptr noundef %65, ptr noundef %66)
  store ptr %67, ptr %4, align 8, !tbaa !47
  br label %59, !llvm.loop !48

68:                                               ; preds = %59
  br label %69

69:                                               ; preds = %68
  %70 = load ptr, ptr %2, align 8, !tbaa !3
  %71 = load ptr, ptr %3, align 8, !tbaa !37
  %72 = call ptr @agnxtnode(ptr noundef %70, ptr noundef %71)
  store ptr %72, ptr %3, align 8, !tbaa !37
  br label %52, !llvm.loop !49

73:                                               ; preds = %52
  call void @llvm.lifetime.end.p0(i64 8, ptr %6) #8
  call void @llvm.lifetime.end.p0(i64 4, ptr %5) #8
  call void @llvm.lifetime.end.p0(i64 8, ptr %4) #8
  call void @llvm.lifetime.end.p0(i64 8, ptr %3) #8
  ret void
}

; Function Attrs: nounwind uwtable
define void @circo_init_graph(ptr noundef %0) #0 {
  %2 = alloca ptr, align 8
  store ptr %0, ptr %2, align 8, !tbaa !3
  %3 = load ptr, ptr %2, align 8, !tbaa !3
  call void @setEdgeType(ptr noundef %3, i32 noundef 2)
  %4 = load ptr, ptr %2, align 8, !tbaa !3
  %5 = call ptr @agroot(ptr noundef %4)
  %6 = getelementptr inbounds nuw %struct.Agobj_s, ptr %5, i32 0, i32 1
  %7 = load ptr, ptr %6, align 8, !tbaa !8
  %8 = getelementptr inbounds nuw %struct.Agraphinfo_t, ptr %7, i32 0, i32 22
  store i16 2, ptr %8, align 8, !tbaa !14
  store i16 2, ptr @Ndim, align 2, !tbaa !33
  %9 = load ptr, ptr %2, align 8, !tbaa !3
  call void @circular_init_node_edge(ptr noundef %9)
  ret void
}