; Function Attrs: nounwind uwtable
define void @circo_init_graph(ptr noundef %0) local_unnamed_addr #0 {
  tail call void @setEdgeType(ptr noundef %0, i32 noundef 2) #8
  %2 = tail call ptr @agroot(ptr noundef %0) #8
  %3 = getelementptr inbounds nuw i8, ptr %2, i64 16
  %4 = load ptr, ptr %3, align 8, !tbaa !3
  %5 = getelementptr inbounds nuw i8, ptr %4, i64 232
  store i16 2, ptr %5, align 8, !tbaa !12
  store i16 2, ptr @Ndim, align 2, !tbaa !32
  %6 = tail call i32 @agnnodes(ptr noundef %0) #8
  %7 = sext i32 %6 to i64
  %.not.i.i = icmp eq i32 %6, 0
  br i1 %.not.i.i, label %.thread.i.i, label %9

.thread.i.i:                                      ; preds = %1
  %8 = tail call noalias ptr @calloc(i64 noundef 0, i64 noundef 8) #9
  br label %gv_calloc.exit.i

9:                                                ; preds = %1
  %mul.ov.i.i = icmp slt i32 %6, 0
  br i1 %mul.ov.i.i, label %10, label %13

10:                                               ; preds = %9
  %11 = load ptr, ptr @stderr, align 8, !tbaa !33
  %12 = tail call i32 (ptr, ptr, ...) @fprintf(ptr noundef %11, ptr noundef nonnull @.str, i64 noundef range(i64 -2147483648, 2147483648) %7, i64 noundef 8) #10
  tail call fastcc void @graphviz_exit() #11
  unreachable

13:                                               ; preds = %9
  %14 = tail call noalias ptr @calloc(i64 noundef range(i64 -2147483648, 2147483648) %7, i64 noundef 8) #9
  %15 = icmp eq ptr %14, null
  br i1 %15, label %16, label %gv_calloc.exit.i

16:                                               ; preds = %13
  %17 = load ptr, ptr @stderr, align 8, !tbaa !33
  %18 = shl nuw nsw i64 %7, 3
  %19 = tail call i32 (ptr, ptr, ...) @fprintf(ptr noundef %17, ptr noundef nonnull @.str.1, i64 noundef %18) #10
  tail call fastcc void @graphviz_exit() #11
  unreachable

gv_calloc.exit.i:                                 ; preds = %13, %.thread.i.i
  %20 = phi ptr [ %8, %.thread.i.i ], [ %14, %13 ]
  %21 = tail call i32 @agnnodes(ptr noundef %0) #8
  %22 = add nsw i32 %21, 1
  %23 = sext i32 %22 to i64
  %.not.i27.i = icmp eq i32 %22, 0
  br i1 %.not.i27.i, label %.thread.i30.i, label %25

.thread.i30.i:                                    ; preds = %gv_calloc.exit.i
  %24 = tail call noalias ptr @calloc(i64 noundef 0, i64 noundef 8) #9
  br label %gv_calloc.exit31.i

25:                                               ; preds = %gv_calloc.exit.i
  %mul.ov.i29.i = icmp slt i32 %21, -1
  br i1 %mul.ov.i29.i, label %26, label %29

26:                                               ; preds = %25
  %27 = load ptr, ptr @stderr, align 8, !tbaa !33
  %28 = tail call i32 (ptr, ptr, ...) @fprintf(ptr noundef %27, ptr noundef nonnull @.str, i64 noundef range(i64 -2147483648, 2147483648) %23, i64 noundef 8) #10
  tail call fastcc void @graphviz_exit() #11
  unreachable

29:                                               ; preds = %25
  %30 = tail call noalias ptr @calloc(i64 noundef range(i64 -2147483648, 2147483648) %23, i64 noundef 8) #9
  %31 = icmp eq ptr %30, null
  br i1 %31, label %32, label %gv_calloc.exit31.i

32:                                               ; preds = %29
  %33 = load ptr, ptr @stderr, align 8, !tbaa !33
  %34 = shl nuw nsw i64 %23, 3
  %35 = tail call i32 (ptr, ptr, ...) @fprintf(ptr noundef %33, ptr noundef nonnull @.str.1, i64 noundef %34) #10
  tail call fastcc void @graphviz_exit() #11
  unreachable

gv_calloc.exit31.i:                               ; preds = %29, %.thread.i30.i
  %36 = phi ptr [ %24, %.thread.i30.i ], [ %30, %29 ]
  %37 = getelementptr inbounds nuw i8, ptr %0, i64 16
  %38 = load ptr, ptr %37, align 8, !tbaa !3
  %39 = getelementptr inbounds nuw i8, ptr %38, i64 184
  store ptr %36, ptr %39, align 8, !tbaa !35
  %40 = tail call ptr @agfstnode(ptr noundef %0) #8
  %.not32.i = icmp eq ptr %40, null
  br i1 %.not32.i, label %._crit_edge.i, label %.lr.ph.i

.lr.ph.i:                                         ; preds = %gv_calloc.exit31.i, %.lr.ph.i
  %indvars.iv.i = phi i64 [ %indvars.iv.next.i, %.lr.ph.i ], [ 0, %gv_calloc.exit31.i ]
  %.034.i = phi ptr [ %49, %.lr.ph.i ], [ %40, %gv_calloc.exit31.i ]
  tail call void @neato_init_node(ptr noundef nonnull %.034.i) #8
  %41 = getelementptr inbounds nuw %struct.ndata, ptr %20, i64 %indvars.iv.i
  %42 = getelementptr inbounds nuw i8, ptr %.034.i, i64 16
  %43 = load ptr, ptr %42, align 8, !tbaa !3
  %44 = getelementptr inbounds nuw i8, ptr %43, i64 152
  store ptr %41, ptr %44, align 8, !tbaa !36
  %45 = load ptr, ptr %37, align 8, !tbaa !3
  %46 = getelementptr inbounds nuw i8, ptr %45, i64 184
  %47 = load ptr, ptr %46, align 8, !tbaa !35
  %indvars.iv.next.i = add nuw nsw i64 %indvars.iv.i, 1
  %48 = getelementptr inbounds nuw ptr, ptr %47, i64 %indvars.iv.i
  store ptr %.034.i, ptr %48, align 8, !tbaa !43
  %49 = tail call ptr @agnxtnode(ptr noundef nonnull %0, ptr noundef nonnull %.034.i) #8
  %.not.i = icmp eq ptr %49, null
  br i1 %.not.i, label %._crit_edge.i, label %.lr.ph.i, !llvm.loop !44

._crit_edge.i:                                    ; preds = %.lr.ph.i, %gv_calloc.exit31.i
  %50 = tail call ptr @agfstnode(ptr noundef nonnull %0) #8
  %.not2540.i = icmp eq ptr %50, null
  br i1 %.not2540.i, label %circular_init_node_edge.exit, label %.lr.ph43.i

.lr.ph43.i:                                       ; preds = %._crit_edge.i, %._crit_edge39.i
  %.141.i = phi ptr [ %59, %._crit_edge39.i ], [ %50, %._crit_edge.i ]
  %51 = tail call ptr @agfstout(ptr noundef nonnull %0, ptr noundef nonnull %.141.i) #8
  %.not2635.i = icmp eq ptr %51, null
  br i1 %.not2635.i, label %._crit_edge39.i, label %.lr.ph38.i

.lr.ph38.i:                                       ; preds = %.lr.ph43.i, %.lr.ph38.i
  %.02436.i = phi ptr [ %58, %.lr.ph38.i ], [ %51, %.lr.ph43.i ]
  %52 = tail call ptr @agbindrec(ptr noundef nonnull %.02436.i, ptr noundef nonnull @.str.2, i32 noundef 240, i32 noundef 1) #8
  tail call void @common_init_edge(ptr noundef nonnull %.02436.i) #8
  %53 = load ptr, ptr @E_weight, align 8, !tbaa !46
  %54 = tail call double @late_double(ptr noundef nonnull %.02436.i, ptr noundef %53, double noundef 1.000000e+00, double noundef 0.000000e+00) #8
  %55 = getelementptr inbounds nuw i8, ptr %.02436.i, i64 16
  %56 = load ptr, ptr %55, align 8, !tbaa !3
  %57 = getelementptr inbounds nuw i8, ptr %56, i64 176
  store double %54, ptr %57, align 8, !tbaa !48
  %58 = tail call ptr @agnxtout(ptr noundef nonnull %0, ptr noundef nonnull %.02436.i) #8
  %.not26.i = icmp eq ptr %58, null
  br i1 %.not26.i, label %._crit_edge39.i, label %.lr.ph38.i, !llvm.loop !54

._crit_edge39.i:                                  ; preds = %.lr.ph38.i, %.lr.ph43.i
  %59 = tail call ptr @agnxtnode(ptr noundef nonnull %0, ptr noundef nonnull %.141.i) #8
  %.not25.i = icmp eq ptr %59, null
  br i1 %.not25.i, label %circular_init_node_edge.exit, label %.lr.ph43.i, !llvm.loop !55

circular_init_node_edge.exit:                     ; preds = %._crit_edge39.i, %._crit_edge.i
  ret void
}